; Function Attrs: mustprogress uwtable
define hidden noundef zeroext i1 @_ZN4cvc58internal6theory5arith6linear26FCSimplexDecisionProcedure17debugCheckWitnessERKNS3_10UpdateInfoENS3_18WitnessImprovementEb(ptr nocapture noundef nonnull readonly align 8 dereferenceable(204) %inf, i32 noundef %w, i1 noundef zeroext %useBlands) local_unnamed_addr #3 align 2 {
entry:
  %d_witness.i = getelementptr inbounds i8, ptr %inf, i64 200
  %0 = load i32, ptr %d_witness.i, align 8
  %cmp.i = icmp eq i32 %0, 4
  %..i = select i1 %useBlands, i32 5, i32 6
  %retval.0.i = select i1 %cmp.i, i32 %..i, i32 %0
  %cmp = icmp eq i32 %retval.0.i, %w
  br i1 %cmp, label %if.then, label %return

if.then:                                          ; preds = %entry
  switch i32 %w, label %return [
    i32 0, label %sw.bb
    i32 1, label %sw.bb2
    i32 2, label %sw.bb5
    i32 6, label %sw.bb12
    i32 5, label %sw.bb10
  ]

sw.bb:                                            ; preds = %if.then
  %d_foundConflict.i = getelementptr inbounds i8, ptr %inf, i64 80
  %1 = load i8, ptr %d_foundConflict.i, align 8
  %2 = and i8 %1, 1
  %tobool.i = icmp ne i8 %2, 0
  br label %return

sw.bb2:                                           ; preds = %if.then
  %_M_engaged.i.i.i = getelementptr inbounds i8, ptr %inf, i64 88
  %3 = load i8, ptr %_M_engaged.i.i.i, align 8
  %4 = and i8 %3, 1
  %tobool.i.not.i.i = icmp eq i8 %4, 0
  br i1 %tobool.i.not.i.i, label %if.end.i.i, label %_ZNK4cvc58internal6theory5arith6linear10UpdateInfo12errorsChangeEv.exit

if.end.i.i:                                       ; preds = %sw.bb2
  tail call void @_ZSt27__throw_bad_optional_accessv() #24
  unreachable

_ZNK4cvc58internal6theory5arith6linear10UpdateInfo12errorsChangeEv.exit: ; preds = %sw.bb2
  %d_errorsChange.i = getelementptr inbounds i8, ptr %inf, i64 84
  %5 = load i32, ptr %d_errorsChange.i, align 4
  %cmp4 = icmp slt i32 %5, 0
  br label %return

sw.bb5:                                           ; preds = %if.then
  %_M_engaged.i.i.i7 = getelementptr inbounds i8, ptr %inf, i64 96
  %6 = load i8, ptr %_M_engaged.i.i.i7, align 8
  %7 = and i8 %6, 1
  %tobool.i.not.i.i8 = icmp eq i8 %7, 0
  br i1 %tobool.i.not.i.i8, label %if.end.i.i9, label %_ZNK4cvc58internal6theory5arith6linear10UpdateInfo14focusDirectionEv.exit

if.end.i.i9:                                      ; preds = %sw.bb5
  tail call void @_ZSt27__throw_bad_optional_accessv() #24
  unreachable

_ZNK4cvc58internal6theory5arith6linear10UpdateInfo14focusDirectionEv.exit: ; preds = %sw.bb5
  %d_focusDirection.i = getelementptr inbounds i8, ptr %inf, i64 92
  %8 = load i32, ptr %d_focusDirection.i, align 4
  %cmp7 = icmp sgt i32 %8, 0
  br label %return

sw.bb10:                                          ; preds = %if.then
  br label %return

sw.bb12:                                          ; preds = %if.then
  %lnot = xor i1 %useBlands, true
  br label %return

return:                                           ; preds = %entry, %if.then, %sw.bb12, %sw.bb10, %_ZNK4cvc58internal6theory5arith6linear10UpdateInfo14focusDirectionEv.exit, %_ZNK4cvc58internal6theory5arith6linear10UpdateInfo12errorsChangeEv.exit, %sw.bb
  %retval.0 = phi i1 [ %lnot, %sw.bb12 ], [ %useBlands, %sw.bb10 ], [ %cmp7, %_ZNK4cvc58internal6theory5arith6linear10UpdateInfo14focusDirectionEv.exit ], [ %cmp4, %_ZNK4cvc58internal6theory5arith6linear10UpdateInfo12errorsChangeEv.exit ], [ %tobool.i, %sw.bb ], [ false, %if.then ], [ false, %entry ]
  ret i1 %retval.0
}